; Function Attrs: nounwind uwtable
define void @Gia_ManQuantSetSuppZero(ptr noundef readonly captures(none) %0) local_unnamed_addr #2 {
  %2 = getelementptr inbounds nuw i8, ptr %0, i64 980
  %3 = load i32, ptr %2, align 4, !tbaa !31
  %4 = icmp sgt i32 %3, 0
  br i1 %4, label %.lr.ph, label %._crit_edge

.lr.ph:                                           ; preds = %1
  %5 = getelementptr inbounds nuw i8, ptr %0, i64 984
  br label %6

6:                                                ; preds = %.lr.ph, %Vec_WrdPush.exit
  %.03 = phi i32 [ 0, %.lr.ph ], [ %39, %Vec_WrdPush.exit ]
  %7 = load ptr, ptr %5, align 8, !tbaa !32
  %8 = getelementptr inbounds nuw i8, ptr %7, i64 4
  %9 = load i32, ptr %8, align 4, !tbaa !43
  %10 = load i32, ptr %7, align 8, !tbaa !42
  %11 = icmp eq i32 %9, %10
  br i1 %11, label %12, label %.Vec_WrdGrow.exit10_crit_edge.i

.Vec_WrdGrow.exit10_crit_edge.i:                  ; preds = %6
  %.phi.trans.insert.i = getelementptr inbounds nuw i8, ptr %7, i64 8
  %.pre.i = load ptr, ptr %.phi.trans.insert.i, align 8, !tbaa !33
  br label %Vec_WrdPush.exit

12:                                               ; preds = %6
  %13 = icmp slt i32 %9, 16
  br i1 %13, label %14, label %22

14:                                               ; preds = %12
  %15 = getelementptr inbounds nuw i8, ptr %7, i64 8
  %16 = load ptr, ptr %15, align 8, !tbaa !33
  %.not9.i.i = icmp eq ptr %16, null
  br i1 %.not9.i.i, label %19, label %17

17:                                               ; preds = %14
  %18 = tail call dereferenceable_or_null(128) ptr @realloc(ptr noundef nonnull %16, i64 noundef 128) #19
  br label %Vec_WrdGrow.exit.i

19:                                               ; preds = %14
  %20 = tail call noalias dereferenceable_or_null(128) ptr @malloc(i64 noundef 128) #18
  br label %Vec_WrdGrow.exit.i

Vec_WrdGrow.exit.i:                               ; preds = %19, %17
  %21 = phi ptr [ %18, %17 ], [ %20, %19 ]
  store ptr %21, ptr %15, align 8, !tbaa !33
  store i32 16, ptr %7, align 8, !tbaa !42
  br label %Vec_WrdPush.exit

22:                                               ; preds = %12
  %23 = shl nuw nsw i32 %9, 1
  %24 = getelementptr inbounds nuw i8, ptr %7, i64 8
  %25 = load ptr, ptr %24, align 8, !tbaa !33
  %.not9.i9.i = icmp eq ptr %25, null
  %26 = zext nneg i32 %23 to i64
  %27 = shl nuw nsw i64 %26, 3
  br i1 %.not9.i9.i, label %30, label %28

28:                                               ; preds = %22
  %29 = tail call ptr @realloc(ptr noundef nonnull %25, i64 noundef %27) #19
  br label %32

30:                                               ; preds = %22
  %31 = tail call noalias ptr @malloc(i64 noundef %27) #18
  br label %32

32:                                               ; preds = %30, %28
  %33 = phi ptr [ %29, %28 ], [ %31, %30 ]
  store ptr %33, ptr %24, align 8, !tbaa !33
  store i32 %23, ptr %7, align 8, !tbaa !42
  br label %Vec_WrdPush.exit

Vec_WrdPush.exit:                                 ; preds = %.Vec_WrdGrow.exit10_crit_edge.i, %Vec_WrdGrow.exit.i, %32
  %34 = phi ptr [ %.pre.i, %.Vec_WrdGrow.exit10_crit_edge.i ], [ %33, %32 ], [ %21, %Vec_WrdGrow.exit.i ]
  %35 = load i32, ptr %8, align 4, !tbaa !43
  %36 = add nsw i32 %35, 1
  store i32 %36, ptr %8, align 4, !tbaa !43
  %37 = sext i32 %35 to i64
  %38 = getelementptr inbounds i64, ptr %34, i64 %37
  store i64 0, ptr %38, align 8, !tbaa !38
  %39 = add nuw nsw i32 %.03, 1
  %40 = load i32, ptr %2, align 4, !tbaa !31
  %41 = icmp slt i32 %39, %40
  br i1 %41, label %6, label %._crit_edge, !llvm.loop !44

._crit_edge:                                      ; preds = %Vec_WrdPush.exit, %1
  ret void
}